; Function Attrs: mustprogress uwtable
define hidden void @_ZN2cv3dnn14dnn4_v2024122313releaseTensorEPN17opencv_tensorflow11TensorProtoE(ptr noundef %0) local_unnamed_addr #3 personality ptr @__gxx_personality_v0 {
  %2 = getelementptr inbounds nuw i8, ptr %0, i64 8
  %3 = load i64, ptr %2, align 8, !tbaa !212
  %4 = and i64 %3, 1
  %.not.i.i.i = icmp eq i64 %4, 0
  %5 = and i64 %3, -4
  %6 = inttoptr i64 %5 to ptr
  br i1 %.not.i.i.i, label %_ZN17opencv_tensorflow11TensorProto22mutable_tensor_contentB5cxx11Ev.exit, label %7, !prof !214

7:                                                ; preds = %1
  %8 = load ptr, ptr %6, align 8, !tbaa !215
  br label %_ZN17opencv_tensorflow11TensorProto22mutable_tensor_contentB5cxx11Ev.exit

_ZN17opencv_tensorflow11TensorProto22mutable_tensor_contentB5cxx11Ev.exit: ; preds = %1, %7
  %.0.i.i.i.i = phi ptr [ %8, %7 ], [ %6, %1 ]
  %9 = getelementptr inbounds nuw i8, ptr %0, i64 192
  %10 = tail call noundef ptr @_ZN6google8protobuf8internal14ArenaStringPtr7MutableB5cxx11ENS2_12EmptyDefaultEPNS0_5ArenaE(ptr noundef nonnull align 8 dereferenceable(8) %9, ptr noundef %.0.i.i.i.i)
  %11 = getelementptr inbounds nuw i8, ptr %10, i64 8
  %12 = load i64, ptr %11, align 8, !tbaa !121
  %13 = icmp eq i64 %12, 0
  br i1 %13, label %30, label %14

14:                                               ; preds = %_ZN17opencv_tensorflow11TensorProto22mutable_tensor_contentB5cxx11Ev.exit
  %15 = load i64, ptr %2, align 8, !tbaa !212
  %16 = and i64 %15, 1
  %.not.i.i = icmp eq i64 %16, 0
  %17 = and i64 %15, -4
  %18 = inttoptr i64 %17 to ptr
  br i1 %.not.i.i, label %_ZN17opencv_tensorflow11TensorProto22release_tensor_contentB5cxx11Ev.exit, label %19, !prof !214

19:                                               ; preds = %14
  %20 = load ptr, ptr %18, align 8, !tbaa !215
  br label %_ZN17opencv_tensorflow11TensorProto22release_tensor_contentB5cxx11Ev.exit

_ZN17opencv_tensorflow11TensorProto22release_tensor_contentB5cxx11Ev.exit: ; preds = %14, %19
  %.0.i.i.i = phi ptr [ %20, %19 ], [ %18, %14 ]
  %21 = tail call noundef ptr @_ZN6google8protobuf8internal14ArenaStringPtr7ReleaseEPKNSt7__cxx1112basic_stringIcSt11char_traitsIcESaIcEEEPNS0_5ArenaE(ptr noundef nonnull align 8 dereferenceable(8) %9, ptr noundef nonnull @_ZN6google8protobuf8internal26fixed_address_empty_stringB5cxx11E, ptr noundef %.0.i.i.i)
  %22 = icmp eq ptr %21, null
  br i1 %22, label %30, label %23

23:                                               ; preds = %_ZN17opencv_tensorflow11TensorProto22release_tensor_contentB5cxx11Ev.exit
  %24 = load ptr, ptr %21, align 8, !tbaa !118
  %25 = getelementptr inbounds nuw i8, ptr %21, i64 16
  %26 = icmp eq ptr %24, %25
  br i1 %26, label %_ZNKSt7__cxx1112basic_stringIcSt11char_traitsIcESaIcEE11_M_is_localEv.exit.thread.i.i, label %_ZNKSt7__cxx1112basic_stringIcSt11char_traitsIcESaIcEE11_M_is_localEv.exit.i.i

_ZNKSt7__cxx1112basic_stringIcSt11char_traitsIcESaIcEE11_M_is_localEv.exit.thread.i.i: ; preds = %23
  %27 = getelementptr inbounds nuw i8, ptr %21, i64 8
  %28 = load i64, ptr %27, align 8, !tbaa !121
  %29 = icmp ult i64 %28, 16
  tail call void @llvm.assume(i1 %29)
  br label %_ZNSt7__cxx1112basic_stringIcSt11char_traitsIcESaIcEED2Ev.exit

_ZNKSt7__cxx1112basic_stringIcSt11char_traitsIcESaIcEE11_M_is_localEv.exit.i.i: ; preds = %23
  tail call void @_ZdlPv(ptr noundef %24) #29
  br label %_ZNSt7__cxx1112basic_stringIcSt11char_traitsIcESaIcEED2Ev.exit

_ZNSt7__cxx1112basic_stringIcSt11char_traitsIcESaIcEED2Ev.exit: ; preds = %_ZNKSt7__cxx1112basic_stringIcSt11char_traitsIcESaIcEE11_M_is_localEv.exit.thread.i.i, %_ZNKSt7__cxx1112basic_stringIcSt11char_traitsIcESaIcEE11_M_is_localEv.exit.i.i
  tail call void @_ZdlPv(ptr noundef nonnull %21) #29
  br label %30

30:                                               ; preds = %_ZN17opencv_tensorflow11TensorProto22release_tensor_contentB5cxx11Ev.exit, %_ZNSt7__cxx1112basic_stringIcSt11char_traitsIcESaIcEED2Ev.exit, %_ZN17opencv_tensorflow11TensorProto22mutable_tensor_contentB5cxx11Ev.exit
  ret void
}